target datalayout = "e-m:e-p270:32:32-p271:32:32-p272:64:64-i64:64-i128:128-f80:128-n8:16:32:64-S128"
target triple = "x86_64-pc-linux-gnu"

%struct._php_stream = type { ptr, ptr, %struct._php_stream_filter_chain, %struct._php_stream_filter_chain, ptr, ptr, %struct._zval_struct, i16, [16 x i8], i32, ptr, ptr, ptr, ptr, i64, ptr, i64, i64, i64, i64, ptr }
%struct._php_stream_filter_chain = type { ptr, ptr, ptr }
%struct._zval_struct = type { %union._zend_value, %union.anon.3, %union.anon.6 }
%union._zend_value = type { i64 }
%union.anon.3 = type { i32 }
%union.anon.6 = type { i32 }

; Function Attrs: nounwind uwtable
define internal i32 @phar_dir_close(ptr noundef %0, i32 noundef %1) #0 {
  %3 = alloca ptr, align 8
  %4 = alloca i32, align 4
  %5 = alloca ptr, align 8
  store ptr %0, ptr %3, align 8
  store i32 %1, ptr %4, align 4
  %6 = load ptr, ptr %3, align 8
  %7 = getelementptr inbounds %struct._php_stream, ptr %6, i32 0, i32 1
  %8 = load ptr, ptr %7, align 8
  store ptr %8, ptr %5, align 8
  %9 = load ptr, ptr %5, align 8
  %10 = icmp ne ptr %9, null
  br i1 %10, label %11, label %18

11:                                               ; preds = %2
  %12 = load ptr, ptr %5, align 8
  call void @zend_hash_destroy(ptr noundef %12)
  br label %13

13:                                               ; preds = %11
  %14 = load ptr, ptr %5, align 8
  call void @_efree_56(ptr noundef %14)
  br label %15

15:                                               ; preds = %13
  %16 = load ptr, ptr %3, align 8
  %17 = getelementptr inbounds %struct._php_stream, ptr %16, i32 0, i32 1
  store ptr null, ptr %17, align 8
  br label %18

18:                                               ; preds = %15, %2
  ret i32 0
}