; Function Attrs: nounwind uwtable
define internal noundef i32 @phar_dir_close(ptr nocapture noundef %0, i32 %1) #1 {
  %3 = getelementptr inbounds i8, ptr %0, i64 8
  %4 = load ptr, ptr %3, align 8
  %.not = icmp eq ptr %4, null
  br i1 %.not, label %6, label %5

5:                                                ; preds = %2
  tail call void @zend_hash_destroy(ptr noundef nonnull %4) #10
  tail call void @_efree_56(ptr noundef nonnull %4) #10
  store ptr null, ptr %3, align 8
  br label %6

6:                                                ; preds = %5, %2
  ret i32 0
}